target datalayout = "e-m:e-p270:32:32-p271:32:32-p272:64:64-i64:64-i128:128-f80:128-n8:16:32:64-S128"
target triple = "x86_64-pc-linux-gnu"

; Function Attrs: nounwind uwtable
define internal i32 @nk_str_match_star(i32 noundef %0, ptr noundef %1, ptr noundef %2) #0 {
  %4 = alloca i32, align 4
  %5 = alloca i32, align 4
  %6 = alloca ptr, align 8
  %7 = alloca ptr, align 8
  store i32 %0, ptr %5, align 4, !tbaa !13
  store ptr %1, ptr %6, align 8, !tbaa !26
  store ptr %2, ptr %7, align 8, !tbaa !26
  br label %8

8:                                                ; preds = %32, %3
  %9 = load ptr, ptr %6, align 8, !tbaa !26
  %10 = load ptr, ptr %7, align 8, !tbaa !26
  %11 = call i32 @nk_str_match_here(ptr noundef %9, ptr noundef %10)
  %12 = icmp ne i32 %11, 0
  br i1 %12, label %13, label %14

13:                                               ; preds = %8
  store i32 1, ptr %4, align 4
  br label %35

14:                                               ; preds = %8
  br label %15

15:                                               ; preds = %14
  %16 = load ptr, ptr %7, align 8, !tbaa !26
  %17 = load i8, ptr %16, align 1, !tbaa !28
  %18 = sext i8 %17 to i32
  %19 = icmp ne i32 %18, 0
  br i1 %19, label %20, label %32

20:                                               ; preds = %15
  %21 = load ptr, ptr %7, align 8, !tbaa !26
  %22 = getelementptr inbounds nuw i8, ptr %21, i32 1
  store ptr %22, ptr %7, align 8, !tbaa !26
  %23 = load i8, ptr %21, align 1, !tbaa !28
  %24 = sext i8 %23 to i32
  %25 = load i32, ptr %5, align 4, !tbaa !13
  %26 = icmp eq i32 %24, %25
  br i1 %26, label %30, label %27

27:                                               ; preds = %20
  %28 = load i32, ptr %5, align 4, !tbaa !13
  %29 = icmp eq i32 %28, 46
  br label %30

30:                                               ; preds = %27, %20
  %31 = phi i1 [ true, %20 ], [ %29, %27 ]
  br label %32

32:                                               ; preds = %30, %15
  %33 = phi i1 [ false, %15 ], [ %31, %30 ]
  br i1 %33, label %8, label %34, !llvm.loop !1441

34:                                               ; preds = %32
  store i32 0, ptr %4, align 4
  br label %35

35:                                               ; preds = %34, %13
  %36 = load i32, ptr %4, align 4
  ret i32 %36
}

; Function Attrs: nounwind uwtable
define internal i32 @nk_str_match_here(ptr noundef %0, ptr noundef %1) #0 {
  %3 = alloca i32, align 4
  %4 = alloca ptr, align 8
  %5 = alloca ptr, align 8
  store ptr %0, ptr %4, align 8, !tbaa !26
  store ptr %1, ptr %5, align 8, !tbaa !26
  %6 = load ptr, ptr %4, align 8, !tbaa !26
  %7 = getelementptr inbounds i8, ptr %6, i64 0
  %8 = load i8, ptr %7, align 1, !tbaa !28
  %9 = sext i8 %8 to i32
  %10 = icmp eq i32 %9, 0
  br i1 %10, label %11, label %12

11:                                               ; preds = %2
  store i32 1, ptr %3, align 4
  br label %72

12:                                               ; preds = %2
  %13 = load ptr, ptr %4, align 8, !tbaa !26
  %14 = getelementptr inbounds i8, ptr %13, i64 1
  %15 = load i8, ptr %14, align 1, !tbaa !28
  %16 = sext i8 %15 to i32
  %17 = icmp eq i32 %16, 42
  br i1 %17, label %18, label %27

18:                                               ; preds = %12
  %19 = load ptr, ptr %4, align 8, !tbaa !26
  %20 = getelementptr inbounds i8, ptr %19, i64 0
  %21 = load i8, ptr %20, align 1, !tbaa !28
  %22 = sext i8 %21 to i32
  %23 = load ptr, ptr %4, align 8, !tbaa !26
  %24 = getelementptr inbounds i8, ptr %23, i64 2
  %25 = load ptr, ptr %5, align 8, !tbaa !26
  %26 = call i32 @nk_str_match_star(i32 noundef %22, ptr noundef %24, ptr noundef %25)
  store i32 %26, ptr %3, align 4
  br label %72

27:                                               ; preds = %12
  %28 = load ptr, ptr %4, align 8, !tbaa !26
  %29 = getelementptr inbounds i8, ptr %28, i64 0
  %30 = load i8, ptr %29, align 1, !tbaa !28
  %31 = sext i8 %30 to i32
  %32 = icmp eq i32 %31, 36
  br i1 %32, label %33, label %45

33:                                               ; preds = %27
  %34 = load ptr, ptr %4, align 8, !tbaa !26
  %35 = getelementptr inbounds i8, ptr %34, i64 1
  %36 = load i8, ptr %35, align 1, !tbaa !28
  %37 = sext i8 %36 to i32
  %38 = icmp eq i32 %37, 0
  br i1 %38, label %39, label %45

39:                                               ; preds = %33
  %40 = load ptr, ptr %5, align 8, !tbaa !26
  %41 = load i8, ptr %40, align 1, !tbaa !28
  %42 = sext i8 %41 to i32
  %43 = icmp eq i32 %42, 0
  %44 = zext i1 %43 to i32
  store i32 %44, ptr %3, align 4
  br label %72

45:                                               ; preds = %33, %27
  %46 = load ptr, ptr %5, align 8, !tbaa !26
  %47 = load i8, ptr %46, align 1, !tbaa !28
  %48 = sext i8 %47 to i32
  %49 = icmp ne i32 %48, 0
  br i1 %49, label %50, label %71

50:                                               ; preds = %45
  %51 = load ptr, ptr %4, align 8, !tbaa !26
  %52 = getelementptr inbounds i8, ptr %51, i64 0
  %53 = load i8, ptr %52, align 1, !tbaa !28
  %54 = sext i8 %53 to i32
  %55 = icmp eq i32 %54, 46
  br i1 %55, label %65, label %56

56:                                               ; preds = %50
  %57 = load ptr, ptr %4, align 8, !tbaa !26
  %58 = getelementptr inbounds i8, ptr %57, i64 0
  %59 = load i8, ptr %58, align 1, !tbaa !28
  %60 = sext i8 %59 to i32
  %61 = load ptr, ptr %5, align 8, !tbaa !26
  %62 = load i8, ptr %61, align 1, !tbaa !28
  %63 = sext i8 %62 to i32
  %64 = icmp eq i32 %60, %63
  br i1 %64, label %65, label %71

65:                                               ; preds = %56, %50
  %66 = load ptr, ptr %4, align 8, !tbaa !26
  %67 = getelementptr inbounds i8, ptr %66, i64 1
  %68 = load ptr, ptr %5, align 8, !tbaa !26
  %69 = getelementptr inbounds i8, ptr %68, i64 1
  %70 = call i32 @nk_str_match_here(ptr noundef %67, ptr noundef %69)
  store i32 %70, ptr %3, align 4
  br label %72

71:                                               ; preds = %56, %45
  store i32 0, ptr %3, align 4
  br label %72

72:                                               ; preds = %71, %65, %39, %18, %11
  %73 = load i32, ptr %3, align 4
  ret i32 %73
}