; Function Attrs: nofree nosync nounwind memory(argmem: read) uwtable
define internal fastcc range(i32 0, 2) i32 @nk_str_match_here(ptr noundef readonly %0, ptr noundef readonly %1) unnamed_addr #10 {
  %3 = load i8, ptr %0, align 1, !tbaa !9
  %4 = icmp eq i8 %3, 0
  br i1 %4, label %nk_str_match_star.exit, label %.lr.ph

.lr.ph:                                           ; preds = %2, %tailrecurse
  %5 = phi i8 [ %7, %tailrecurse ], [ %3, %2 ]
  %.tr1929 = phi ptr [ %33, %tailrecurse ], [ %1, %2 ]
  %.tr28 = phi ptr [ %6, %tailrecurse ], [ %0, %2 ]
  %.fr41 = freeze i8 %5
  %6 = getelementptr inbounds nuw i8, ptr %.tr28, i64 1
  %7 = load i8, ptr %6, align 1, !tbaa !9
  %8 = icmp eq i8 %7, 42
  br i1 %8, label %9, label %22

9:                                                ; preds = %.lr.ph
  %10 = getelementptr inbounds nuw i8, ptr %.tr28, i64 2
  %11 = icmp eq i8 %.fr41, 46
  br i1 %11, label %.split.us, label %.split

.split.us:                                        ; preds = %9
  %12 = tail call fastcc i32 @nk_str_match_here(ptr noundef nonnull %10, ptr noundef %.tr1929)
  %.not.i.us33 = icmp eq i32 %12, 0
  br i1 %.not.i.us33, label %.lr.ph35, label %nk_str_match_star.exit

13:                                               ; preds = %.lr.ph35
  %14 = getelementptr inbounds nuw i8, ptr %.0.i.us34, i64 1
  %15 = tail call fastcc i32 @nk_str_match_here(ptr noundef nonnull %10, ptr noundef nonnull %14)
  %.not.i.us = icmp eq i32 %15, 0
  br i1 %.not.i.us, label %.lr.ph35, label %nk_str_match_star.exit

.lr.ph35:                                         ; preds = %.split.us, %13
  %.0.i.us34 = phi ptr [ %14, %13 ], [ %.tr1929, %.split.us ]
  %16 = load i8, ptr %.0.i.us34, align 1, !tbaa !9
  %.not8.i.us = icmp eq i8 %16, 0
  br i1 %.not8.i.us, label %nk_str_match_star.exit, label %13

.split:                                           ; preds = %9, %18
  %.0.i = phi ptr [ %20, %18 ], [ %.tr1929, %9 ]
  %17 = tail call fastcc i32 @nk_str_match_here(ptr noundef nonnull %10, ptr noundef %.0.i)
  %.not.i = icmp eq i32 %17, 0
  br i1 %.not.i, label %18, label %nk_str_match_star.exit

18:                                               ; preds = %.split
  %19 = load i8, ptr %.0.i, align 1, !tbaa !9
  %20 = getelementptr inbounds nuw i8, ptr %.0.i, i64 1
  %21 = icmp eq i8 %.fr41, %19
  br i1 %21, label %.split, label %nk_str_match_star.exit, !llvm.loop !24

22:                                               ; preds = %.lr.ph
  %23 = icmp eq i8 %.fr41, 36
  %24 = icmp eq i8 %7, 0
  %or.cond = and i1 %23, %24
  %25 = load i8, ptr %.tr1929, align 1, !tbaa !9
  %26 = icmp eq i8 %25, 0
  br i1 %or.cond, label %27, label %29

27:                                               ; preds = %22
  %28 = zext i1 %26 to i32
  br label %nk_str_match_star.exit

29:                                               ; preds = %22
  br i1 %26, label %nk_str_match_star.exit, label %30

30:                                               ; preds = %29
  %31 = icmp eq i8 %.fr41, 46
  %32 = icmp eq i8 %.fr41, %25
  %or.cond18 = or i1 %31, %32
  br i1 %or.cond18, label %tailrecurse, label %nk_str_match_star.exit

tailrecurse:                                      ; preds = %30
  %33 = getelementptr inbounds nuw i8, ptr %.tr1929, i64 1
  br i1 %24, label %nk_str_match_star.exit, label %.lr.ph

nk_str_match_star.exit:                           ; preds = %tailrecurse, %30, %29, %.split, %18, %13, %.lr.ph35, %2, %.split.us, %27
  %.0 = phi i32 [ %28, %27 ], [ 1, %.split.us ], [ 1, %2 ], [ 0, %.lr.ph35 ], [ 1, %13 ], [ 0, %18 ], [ 1, %.split ], [ 1, %tailrecurse ], [ 0, %30 ], [ 0, %29 ]
  ret i32 %.0
}